; Function Attrs: mustprogress uwtable
define void @_ZN4YAML7Emitter11PrepareNodeENS_15EmitterNodeType5valueE(ptr noundef nonnull align 8 dereferenceable(72) %0, i32 noundef %1) local_unnamed_addr #0 align 2 {
  %3 = load ptr, ptr %0, align 8, !tbaa !3
  %4 = tail call noundef i32 @_ZNK4YAML12EmitterState16CurGroupNodeTypeEv(ptr noundef nonnull align 8 dereferenceable(224) %3)
  switch i32 %4, label %10 [
    i32 0, label %5
    i32 3, label %6
    i32 4, label %7
    i32 5, label %8
    i32 6, label %9
  ]

5:                                                ; preds = %2
  tail call void @_ZN4YAML7Emitter14PrepareTopNodeENS_15EmitterNodeType5valueE(ptr noundef nonnull align 8 dereferenceable(72) %0, i32 noundef %1)
  br label %10

6:                                                ; preds = %2
  tail call void @_ZN4YAML7Emitter18FlowSeqPrepareNodeENS_15EmitterNodeType5valueE(ptr noundef nonnull align 8 dereferenceable(72) %0, i32 noundef %1)
  br label %10

7:                                                ; preds = %2
  tail call void @_ZN4YAML7Emitter19BlockSeqPrepareNodeENS_15EmitterNodeType5valueE(ptr noundef nonnull align 8 dereferenceable(72) %0, i32 noundef %1)
  br label %10

8:                                                ; preds = %2
  tail call void @_ZN4YAML7Emitter18FlowMapPrepareNodeENS_15EmitterNodeType5valueE(ptr noundef nonnull align 8 dereferenceable(72) %0, i32 noundef %1)
  br label %10

9:                                                ; preds = %2
  tail call void @_ZN4YAML7Emitter19BlockMapPrepareNodeENS_15EmitterNodeType5valueE(ptr noundef nonnull align 8 dereferenceable(72) %0, i32 noundef %1)
  br label %10

10:                                               ; preds = %9, %8, %7, %6, %5, %2
  ret void
}